target datalayout = "e-m:e-p270:32:32-p271:32:32-p272:64:64-i64:64-i128:128-f80:128-n8:16:32:64-S128"
target triple = "x86_64-pc-linux-gnu"

%class.dependent_expr_simplifier = type { ptr, ptr, ptr, ptr }
%"class.std::tuple" = type { %"struct.std::_Tuple_impl" }
%"struct.std::_Tuple_impl" = type { %"struct.std::_Tuple_impl.102", %"struct.std::_Head_base.105" }
%"struct.std::_Tuple_impl.102" = type { %"struct.std::_Tuple_impl.103", %"struct.std::_Head_base.104" }
%"struct.std::_Tuple_impl.103" = type { %"struct.std::_Head_base" }
%"struct.std::_Head_base" = type { ptr }
%"struct.std::_Head_base.104" = type { ptr }
%"struct.std::_Head_base.105" = type { ptr }
%class.dependent_expr = type { ptr, ptr, ptr, ptr }

; Function Attrs: mustprogress nounwind uwtable
define linkonce_odr hidden void @_ZNSt10_Head_baseILm2EPN18dependency_managerIN11ast_manager22expr_dependency_configEE10dependencyELb0EEC2ERKS5_(ptr noundef nonnull align 8 dereferenceable(8) %0, ptr noundef nonnull align 8 dereferenceable(8) %1) unnamed_addr #6 comdat align 2 {
  %3 = alloca ptr, align 8
  %4 = alloca ptr, align 8
  store ptr %0, ptr %3, align 8, !tbaa !798
  store ptr %1, ptr %4, align 8, !tbaa !402
  %5 = load ptr, ptr %3, align 8
  %6 = getelementptr inbounds nuw %"struct.std::_Head_base", ptr %5, i32 0, i32 0
  %7 = load ptr, ptr %4, align 8, !tbaa !402
  %8 = load ptr, ptr %7, align 8, !tbaa !205
  store ptr %8, ptr %6, align 8, !tbaa !800
  ret void
}

; Function Attrs: mustprogress nounwind uwtable
define linkonce_odr hidden void @_ZNSt10_Head_baseILm1EP3appLb0EEC2ERKS1_(ptr noundef nonnull align 8 dereferenceable(8) %0, ptr noundef nonnull align 8 dereferenceable(8) %1) unnamed_addr #6 comdat align 2 {
  %3 = alloca ptr, align 8
  %4 = alloca ptr, align 8
  store ptr %0, ptr %3, align 8, !tbaa !823
  store ptr %1, ptr %4, align 8, !tbaa !401
  %5 = load ptr, ptr %3, align 8
  %6 = getelementptr inbounds nuw %"struct.std::_Head_base.104", ptr %5, i32 0, i32 0
  %7 = load ptr, ptr %4, align 8, !tbaa !401
  %8 = load ptr, ptr %7, align 8, !tbaa !104
  store ptr %8, ptr %6, align 8, !tbaa !825
  ret void
}

; Function Attrs: mustprogress uwtable
define linkonce_odr hidden void @_ZNSt11_Tuple_implILm2EJPN18dependency_managerIN11ast_manager22expr_dependency_configEE10dependencyEEEC2ERKS5_(ptr noundef nonnull align 8 dereferenceable(8) %0, ptr noundef nonnull align 8 dereferenceable(8) %1) unnamed_addr #4 comdat align 2 {
  %3 = alloca ptr, align 8
  %4 = alloca ptr, align 8
  store ptr %0, ptr %3, align 8, !tbaa !793
  store ptr %1, ptr %4, align 8, !tbaa !402
  %5 = load ptr, ptr %3, align 8
  %6 = load ptr, ptr %4, align 8, !tbaa !402
  call void @_ZNSt10_Head_baseILm2EPN18dependency_managerIN11ast_manager22expr_dependency_configEE10dependencyELb0EEC2ERKS5_(ptr noundef nonnull align 8 dereferenceable(8) %5, ptr noundef nonnull align 8 dereferenceable(8) %6)
  ret void
}

; Function Attrs: mustprogress nounwind uwtable
define linkonce_odr hidden noundef nonnull align 8 dereferenceable(8) ptr @_ZNSt10_Head_baseILm2EPN18dependency_managerIN11ast_manager22expr_dependency_configEE10dependencyELb0EE7_M_headERS6_(ptr noundef nonnull align 8 dereferenceable(8) %0) #6 comdat align 2 {
  %2 = alloca ptr, align 8
  store ptr %0, ptr %2, align 8, !tbaa !798
  %3 = load ptr, ptr %2, align 8, !tbaa !798
  %4 = getelementptr inbounds nuw %"struct.std::_Head_base", ptr %3, i32 0, i32 0
  ret ptr %4
}

; Function Attrs: mustprogress nounwind uwtable
define linkonce_odr hidden noundef nonnull align 8 dereferenceable(8) ptr @_ZNSt10_Head_baseILm1EP3appLb0EE7_M_headERS2_(ptr noundef nonnull align 8 dereferenceable(8) %0) #6 comdat align 2 {
  %2 = alloca ptr, align 8
  store ptr %0, ptr %2, align 8, !tbaa !823
  %3 = load ptr, ptr %2, align 8, !tbaa !823
  %4 = getelementptr inbounds nuw %"struct.std::_Head_base.104", ptr %3, i32 0, i32 0
  ret ptr %4
}

; Function Attrs: mustprogress nounwind uwtable
define linkonce_odr hidden noundef nonnull align 8 dereferenceable(8) ptr @_ZNSt10_Head_baseILm0EP4exprLb0EE7_M_headERS2_(ptr noundef nonnull align 8 dereferenceable(8) %0) #6 comdat align 2 {
  %2 = alloca ptr, align 8
  store ptr %0, ptr %2, align 8, !tbaa !819
  %3 = load ptr, ptr %2, align 8, !tbaa !819
  %4 = getelementptr inbounds nuw %"struct.std::_Head_base.105", ptr %3, i32 0, i32 0
  ret ptr %4
}

; Function Attrs: mustprogress nounwind uwtable
define linkonce_odr hidden void @_ZNSt10_Head_baseILm0EP4exprLb0EEC2ERKS1_(ptr noundef nonnull align 8 dereferenceable(8) %0, ptr noundef nonnull align 8 dereferenceable(8) %1) unnamed_addr #6 comdat align 2 {
  %3 = alloca ptr, align 8
  %4 = alloca ptr, align 8
  store ptr %0, ptr %3, align 8, !tbaa !819
  store ptr %1, ptr %4, align 8, !tbaa !100
  %5 = load ptr, ptr %3, align 8
  %6 = getelementptr inbounds nuw %"struct.std::_Head_base.105", ptr %5, i32 0, i32 0
  %7 = load ptr, ptr %4, align 8, !tbaa !100
  %8 = load ptr, ptr %7, align 8, !tbaa !97
  store ptr %8, ptr %6, align 8, !tbaa !821
  ret void
}

; Function Attrs: mustprogress uwtable
define linkonce_odr hidden void @_ZNSt11_Tuple_implILm1EJP3appPN18dependency_managerIN11ast_manager22expr_dependency_configEE10dependencyEEEC2ERKS1_RKS7_(ptr noundef nonnull align 8 dereferenceable(16) %0, ptr noundef nonnull align 8 dereferenceable(8) %1, ptr noundef nonnull align 8 dereferenceable(8) %2) unnamed_addr #4 comdat align 2 {
  %4 = alloca ptr, align 8
  %5 = alloca ptr, align 8
  %6 = alloca ptr, align 8
  store ptr %0, ptr %4, align 8, !tbaa !817
  store ptr %1, ptr %5, align 8, !tbaa !401
  store ptr %2, ptr %6, align 8, !tbaa !402
  %7 = load ptr, ptr %4, align 8
  %8 = load ptr, ptr %6, align 8, !tbaa !402
  call void @_ZNSt11_Tuple_implILm2EJPN18dependency_managerIN11ast_manager22expr_dependency_configEE10dependencyEEEC2ERKS5_(ptr noundef nonnull align 8 dereferenceable(8) %7, ptr noundef nonnull align 8 dereferenceable(8) %8)
  %9 = getelementptr inbounds i8, ptr %7, i64 8
  %10 = load ptr, ptr %5, align 8, !tbaa !401
  call void @_ZNSt10_Head_baseILm1EP3appLb0EEC2ERKS1_(ptr noundef nonnull align 8 dereferenceable(8) %9, ptr noundef nonnull align 8 dereferenceable(8) %10)
  ret void
}

; Function Attrs: mustprogress nounwind uwtable
define linkonce_odr hidden noundef nonnull align 8 dereferenceable(8) ptr @_ZNSt11_Tuple_implILm2EJPN18dependency_managerIN11ast_manager22expr_dependency_configEE10dependencyEEE7_M_headERS6_(ptr noundef nonnull align 8 dereferenceable(8) %0) #6 comdat align 2 {
  %2 = alloca ptr, align 8
  store ptr %0, ptr %2, align 8, !tbaa !793
  %3 = load ptr, ptr %2, align 8, !tbaa !793
  %4 = call noundef nonnull align 8 dereferenceable(8) ptr @_ZNSt10_Head_baseILm2EPN18dependency_managerIN11ast_manager22expr_dependency_configEE10dependencyELb0EE7_M_headERS6_(ptr noundef nonnull align 8 dereferenceable(8) %3) #3
  ret ptr %4
}

; Function Attrs: mustprogress nounwind uwtable
define linkonce_odr hidden noundef nonnull align 8 dereferenceable(8) ptr @_ZNSt11_Tuple_implILm1EJP3appPN18dependency_managerIN11ast_manager22expr_dependency_configEE10dependencyEEE7_M_headERS8_(ptr noundef nonnull align 8 dereferenceable(16) %0) #6 comdat align 2 {
  %2 = alloca ptr, align 8
  store ptr %0, ptr %2, align 8, !tbaa !817
  %3 = load ptr, ptr %2, align 8, !tbaa !817
  %4 = getelementptr inbounds i8, ptr %3, i64 8
  %5 = call noundef nonnull align 8 dereferenceable(8) ptr @_ZNSt10_Head_baseILm1EP3appLb0EE7_M_headERS2_(ptr noundef nonnull align 8 dereferenceable(8) %4) #3
  ret ptr %5
}

; Function Attrs: mustprogress nounwind uwtable
define linkonce_odr hidden noundef nonnull align 8 dereferenceable(8) ptr @_ZNSt11_Tuple_implILm0EJP4exprP3appPN18dependency_managerIN11ast_manager22expr_dependency_configEE10dependencyEEE7_M_headERSA_(ptr noundef nonnull align 8 dereferenceable(24) %0) #6 comdat align 2 {
  %2 = alloca ptr, align 8
  store ptr %0, ptr %2, align 8, !tbaa !815
  %3 = load ptr, ptr %2, align 8, !tbaa !815
  %4 = getelementptr inbounds i8, ptr %3, i64 16
  %5 = call noundef nonnull align 8 dereferenceable(8) ptr @_ZNSt10_Head_baseILm0EP4exprLb0EE7_M_headERS2_(ptr noundef nonnull align 8 dereferenceable(8) %4) #3
  ret ptr %5
}

; Function Attrs: noinline noreturn nounwind uwtable
define linkonce_odr hidden void @__clang_call_terminate(ptr noundef %0) #12 comdat {
  %2 = call ptr @__cxa_begin_catch(ptr %0) #3
  call void @_ZSt9terminatev() #21
  unreachable
}

; Function Attrs: mustprogress uwtable
define linkonce_odr hidden void @_ZNSt11_Tuple_implILm0EJP4exprP3appPN18dependency_managerIN11ast_manager22expr_dependency_configEE10dependencyEEEC2ERKS1_RKS3_RKS9_(ptr noundef nonnull align 8 dereferenceable(24) %0, ptr noundef nonnull align 8 dereferenceable(8) %1, ptr noundef nonnull align 8 dereferenceable(8) %2, ptr noundef nonnull align 8 dereferenceable(8) %3) unnamed_addr #4 comdat align 2 {
  %5 = alloca ptr, align 8
  %6 = alloca ptr, align 8
  %7 = alloca ptr, align 8
  %8 = alloca ptr, align 8
  store ptr %0, ptr %5, align 8, !tbaa !815
  store ptr %1, ptr %6, align 8, !tbaa !100
  store ptr %2, ptr %7, align 8, !tbaa !401
  store ptr %3, ptr %8, align 8, !tbaa !402
  %9 = load ptr, ptr %5, align 8
  %10 = load ptr, ptr %7, align 8, !tbaa !401
  %11 = load ptr, ptr %8, align 8, !tbaa !402
  call void @_ZNSt11_Tuple_implILm1EJP3appPN18dependency_managerIN11ast_manager22expr_dependency_configEE10dependencyEEEC2ERKS1_RKS7_(ptr noundef nonnull align 8 dereferenceable(16) %9, ptr noundef nonnull align 8 dereferenceable(8) %10, ptr noundef nonnull align 8 dereferenceable(8) %11)
  %12 = getelementptr inbounds i8, ptr %9, i64 16
  %13 = load ptr, ptr %6, align 8, !tbaa !100
  call void @_ZNSt10_Head_baseILm0EP4exprLb0EEC2ERKS1_(ptr noundef nonnull align 8 dereferenceable(8) %12, ptr noundef nonnull align 8 dereferenceable(8) %13)
  ret void
}

; Function Attrs: mustprogress nounwind uwtable
define linkonce_odr hidden noundef nonnull align 8 dereferenceable(8) ptr @_ZSt12__get_helperILm2EPN18dependency_managerIN11ast_manager22expr_dependency_configEE10dependencyEJEERT0_RSt11_Tuple_implIXT_EJS6_DpT1_EE(ptr noundef nonnull align 8 dereferenceable(8) %0) #6 comdat {
  %2 = alloca ptr, align 8
  store ptr %0, ptr %2, align 8, !tbaa !793
  %3 = load ptr, ptr %2, align 8, !tbaa !793
  %4 = call noundef nonnull align 8 dereferenceable(8) ptr @_ZNSt11_Tuple_implILm2EJPN18dependency_managerIN11ast_manager22expr_dependency_configEE10dependencyEEE7_M_headERS6_(ptr noundef nonnull align 8 dereferenceable(8) %3) #3
  ret ptr %4
}

; Function Attrs: mustprogress nounwind uwtable
define linkonce_odr hidden noundef nonnull align 8 dereferenceable(8) ptr @_ZSt12__get_helperILm1EP3appJPN18dependency_managerIN11ast_manager22expr_dependency_configEE10dependencyEEERT0_RSt11_Tuple_implIXT_EJS8_DpT1_EE(ptr noundef nonnull align 8 dereferenceable(16) %0) #6 comdat {
  %2 = alloca ptr, align 8
  store ptr %0, ptr %2, align 8, !tbaa !817
  %3 = load ptr, ptr %2, align 8, !tbaa !817
  %4 = call noundef nonnull align 8 dereferenceable(8) ptr @_ZNSt11_Tuple_implILm1EJP3appPN18dependency_managerIN11ast_manager22expr_dependency_configEE10dependencyEEE7_M_headERS8_(ptr noundef nonnull align 8 dereferenceable(16) %3) #3
  ret ptr %4
}

; Function Attrs: mustprogress nounwind uwtable
define linkonce_odr hidden noundef nonnull align 8 dereferenceable(8) ptr @_ZSt12__get_helperILm0EP4exprJP3appPN18dependency_managerIN11ast_manager22expr_dependency_configEE10dependencyEEERT0_RSt11_Tuple_implIXT_EJSA_DpT1_EE(ptr noundef nonnull align 8 dereferenceable(24) %0) #6 comdat {
  %2 = alloca ptr, align 8
  store ptr %0, ptr %2, align 8, !tbaa !815
  %3 = load ptr, ptr %2, align 8, !tbaa !815
  %4 = call noundef nonnull align 8 dereferenceable(8) ptr @_ZNSt11_Tuple_implILm0EJP4exprP3appPN18dependency_managerIN11ast_manager22expr_dependency_configEE10dependencyEEE7_M_headERSA_(ptr noundef nonnull align 8 dereferenceable(24) %3) #3
  ret ptr %4
}

; Function Attrs: mustprogress nounwind uwtable
define linkonce_odr hidden void @_ZNSt5tupleIJP4exprP3appPN18dependency_managerIN11ast_manager22expr_dependency_configEE10dependencyEEEC2ILb1ETnNSt9enable_ifIXclsr4_TCCIXT_EEE29__is_implicitly_constructibleIRKS1_RKS3_RKS9_EEEbE4typeELb1EEESE_SG_SI_(ptr noundef nonnull align 8 dereferenceable(24) %0, ptr noundef nonnull align 8 dereferenceable(8) %1, ptr noundef nonnull align 8 dereferenceable(8) %2, ptr noundef nonnull align 8 dereferenceable(8) %3) unnamed_addr #6 comdat align 2 personality ptr @__gxx_personality_v0 {
  %5 = alloca ptr, align 8
  %6 = alloca ptr, align 8
  %7 = alloca ptr, align 8
  %8 = alloca ptr, align 8
  store ptr %0, ptr %5, align 8, !tbaa !417
  store ptr %1, ptr %6, align 8, !tbaa !100
  store ptr %2, ptr %7, align 8, !tbaa !401
  store ptr %3, ptr %8, align 8, !tbaa !402
  %9 = load ptr, ptr %5, align 8
  %10 = load ptr, ptr %6, align 8, !tbaa !100
  %11 = load ptr, ptr %7, align 8, !tbaa !401
  %12 = load ptr, ptr %8, align 8, !tbaa !402
  invoke void @_ZNSt11_Tuple_implILm0EJP4exprP3appPN18dependency_managerIN11ast_manager22expr_dependency_configEE10dependencyEEEC2ERKS1_RKS3_RKS9_(ptr noundef nonnull align 8 dereferenceable(24) %9, ptr noundef nonnull align 8 dereferenceable(8) %10, ptr noundef nonnull align 8 dereferenceable(8) %11, ptr noundef nonnull align 8 dereferenceable(8) %12)
          to label %13 unwind label %14

13:                                               ; preds = %4
  ret void

14:                                               ; preds = %4
  %15 = landingpad { ptr, i32 }
          catch ptr null
  %16 = extractvalue { ptr, i32 } %15, 0
  call void @__clang_call_terminate(ptr %16) #21
  unreachable
}

; Function Attrs: mustprogress nounwind uwtable
define linkonce_odr hidden noundef nonnull align 8 dereferenceable(8) ptr @_ZSt3getILm2EJP4exprP3appPN18dependency_managerIN11ast_manager22expr_dependency_configEE10dependencyEEEONSt13tuple_elementIXT_ESt5tupleIJDpT0_EEE4typeEOSE_(ptr noundef nonnull align 8 dereferenceable(24) %0) #6 comdat {
  %2 = alloca ptr, align 8
  store ptr %0, ptr %2, align 8, !tbaa !417
  %3 = load ptr, ptr %2, align 8, !tbaa !417
  %4 = call noundef nonnull align 8 dereferenceable(8) ptr @_ZSt12__get_helperILm2EPN18dependency_managerIN11ast_manager22expr_dependency_configEE10dependencyEJEERT0_RSt11_Tuple_implIXT_EJS6_DpT1_EE(ptr noundef nonnull align 8 dereferenceable(8) %3) #3
  ret ptr %4
}

; Function Attrs: mustprogress nounwind uwtable
define linkonce_odr hidden noundef nonnull align 8 dereferenceable(8) ptr @_ZSt3getILm1EJP4exprP3appPN18dependency_managerIN11ast_manager22expr_dependency_configEE10dependencyEEEONSt13tuple_elementIXT_ESt5tupleIJDpT0_EEE4typeEOSE_(ptr noundef nonnull align 8 dereferenceable(24) %0) #6 comdat {
  %2 = alloca ptr, align 8
  store ptr %0, ptr %2, align 8, !tbaa !417
  %3 = load ptr, ptr %2, align 8, !tbaa !417
  %4 = call noundef nonnull align 8 dereferenceable(8) ptr @_ZSt12__get_helperILm1EP3appJPN18dependency_managerIN11ast_manager22expr_dependency_configEE10dependencyEEERT0_RSt11_Tuple_implIXT_EJS8_DpT1_EE(ptr noundef nonnull align 8 dereferenceable(16) %3) #3
  ret ptr %4
}

; Function Attrs: mustprogress nounwind uwtable
define linkonce_odr hidden noundef nonnull align 8 dereferenceable(8) ptr @_ZSt3getILm0EJP4exprP3appPN18dependency_managerIN11ast_manager22expr_dependency_configEE10dependencyEEEONSt13tuple_elementIXT_ESt5tupleIJDpT0_EEE4typeEOSE_(ptr noundef nonnull align 8 dereferenceable(24) %0) #6 comdat {
  %2 = alloca ptr, align 8
  store ptr %0, ptr %2, align 8, !tbaa !417
  %3 = load ptr, ptr %2, align 8, !tbaa !417
  %4 = call noundef nonnull align 8 dereferenceable(8) ptr @_ZSt12__get_helperILm0EP4exprJP3appPN18dependency_managerIN11ast_manager22expr_dependency_configEE10dependencyEEERT0_RSt11_Tuple_implIXT_EJSA_DpT1_EE(ptr noundef nonnull align 8 dereferenceable(24) %3) #3
  ret ptr %4
}

; Function Attrs: mustprogress nounwind uwtable
define linkonce_odr hidden void @_ZNK14dependent_exprclEv(ptr dead_on_unwind noalias writable sret(%"class.std::tuple") align 8 %0, ptr noundef nonnull align 8 dereferenceable(32) %1) #6 comdat align 2 {
  %3 = alloca ptr, align 8
  %4 = alloca ptr, align 8
  store ptr %0, ptr %3, align 8
  store ptr %1, ptr %4, align 8, !tbaa !416
  %5 = load ptr, ptr %4, align 8
  %6 = getelementptr inbounds nuw %class.dependent_expr, ptr %5, i32 0, i32 1
  %7 = getelementptr inbounds nuw %class.dependent_expr, ptr %5, i32 0, i32 2
  %8 = getelementptr inbounds nuw %class.dependent_expr, ptr %5, i32 0, i32 3
  call void @_ZNSt5tupleIJP4exprP3appPN18dependency_managerIN11ast_manager22expr_dependency_configEE10dependencyEEEC2ILb1ETnNSt9enable_ifIXclsr4_TCCIXT_EEE29__is_implicitly_constructibleIRKS1_RKS3_RKS9_EEEbE4typeELb1EEESE_SG_SI_(ptr noundef nonnull align 8 dereferenceable(24) %0, ptr noundef nonnull align 8 dereferenceable(8) %6, ptr noundef nonnull align 8 dereferenceable(8) %7, ptr noundef nonnull align 8 dereferenceable(8) %8) #3
  ret void
}

; Function Attrs: mustprogress uwtable
define hidden noundef ptr @_ZN20eliminate_predicates11init_clauseEj(ptr noundef nonnull align 8 dereferenceable(400) %0, i32 noundef %1) #4 align 2 {
  %3 = alloca ptr, align 8
  %4 = alloca i32, align 4
  %5 = alloca %"class.std::tuple", align 8
  %6 = alloca ptr, align 8
  %7 = alloca ptr, align 8
  %8 = alloca ptr, align 8
  store ptr %0, ptr %3, align 8, !tbaa !63
  store i32 %1, ptr %4, align 4, !tbaa !48
  %9 = load ptr, ptr %3, align 8
  call void @llvm.lifetime.start.p0(i64 24, ptr %5) #3
  %10 = getelementptr inbounds nuw %class.dependent_expr_simplifier, ptr %9, i32 0, i32 2
  %11 = load ptr, ptr %10, align 8, !tbaa !124
  %12 = load i32, ptr %4, align 4, !tbaa !48
  %13 = load ptr, ptr %11, align 8, !tbaa !42
  %14 = getelementptr inbounds ptr, ptr %13, i64 3
  %15 = load ptr, ptr %14, align 8
  %16 = call noundef nonnull align 8 dereferenceable(32) ptr %15(ptr noundef nonnull align 8 dereferenceable(160) %11, i32 noundef %12)
  call void @_ZNK14dependent_exprclEv(ptr dead_on_unwind writable sret(%"class.std::tuple") align 8 %5, ptr noundef nonnull align 8 dereferenceable(32) %16)
  call void @llvm.lifetime.start.p0(i64 8, ptr %6) #3
  %17 = call noundef nonnull align 8 dereferenceable(8) ptr @_ZSt3getILm0EJP4exprP3appPN18dependency_managerIN11ast_manager22expr_dependency_configEE10dependencyEEEONSt13tuple_elementIXT_ESt5tupleIJDpT0_EEE4typeEOSE_(ptr noundef nonnull align 8 dereferenceable(24) %5) #3
  store ptr %17, ptr %6, align 8, !tbaa !100
  call void @llvm.lifetime.start.p0(i64 8, ptr %7) #3
  %18 = call noundef nonnull align 8 dereferenceable(8) ptr @_ZSt3getILm1EJP4exprP3appPN18dependency_managerIN11ast_manager22expr_dependency_configEE10dependencyEEEONSt13tuple_elementIXT_ESt5tupleIJDpT0_EEE4typeEOSE_(ptr noundef nonnull align 8 dereferenceable(24) %5) #3
  store ptr %18, ptr %7, align 8, !tbaa !401
  call void @llvm.lifetime.start.p0(i64 8, ptr %8) #3
  %19 = call noundef nonnull align 8 dereferenceable(8) ptr @_ZSt3getILm2EJP4exprP3appPN18dependency_managerIN11ast_manager22expr_dependency_configEE10dependencyEEEONSt13tuple_elementIXT_ESt5tupleIJDpT0_EEE4typeEOSE_(ptr noundef nonnull align 8 dereferenceable(24) %5) #3
  store ptr %19, ptr %8, align 8, !tbaa !402
  %20 = load ptr, ptr %6, align 8, !tbaa !100
  %21 = load ptr, ptr %20, align 8, !tbaa !97
  %22 = load ptr, ptr %8, align 8, !tbaa !402
  %23 = load ptr, ptr %22, align 8, !tbaa !205
  %24 = load i32, ptr %4, align 4, !tbaa !48
  %25 = call noundef ptr @_ZN20eliminate_predicates11init_clauseEP4exprPN18dependency_managerIN11ast_manager22expr_dependency_configEE10dependencyEj(ptr noundef nonnull align 8 dereferenceable(400) %9, ptr noundef %21, ptr noundef %23, i32 noundef %24)
  call void @llvm.lifetime.end.p0(i64 8, ptr %8) #3
  call void @llvm.lifetime.end.p0(i64 8, ptr %7) #3
  call void @llvm.lifetime.end.p0(i64 8, ptr %6) #3
  call void @llvm.lifetime.end.p0(i64 24, ptr %5) #3
  ret ptr %25
}