; Function Attrs: mustprogress uwtable
define hidden noundef ptr @_ZN20eliminate_predicates11init_clauseEj(ptr noundef nonnull readonly align 8 captures(none) dereferenceable(400) %0, i32 noundef %1) local_unnamed_addr #3 align 2 personality ptr @__gxx_personality_v0 {
  %3 = getelementptr inbounds nuw i8, ptr %0, i64 16
  %4 = load ptr, ptr %3, align 8, !tbaa !92
  %5 = load ptr, ptr %4, align 8, !tbaa !33
  %6 = getelementptr inbounds nuw i8, ptr %5, i64 24
  %7 = load ptr, ptr %6, align 8
  %8 = tail call noundef nonnull align 8 dereferenceable(32) ptr %7(ptr noundef nonnull align 8 dereferenceable(160) %4, i32 noundef %1)
  %9 = getelementptr inbounds nuw i8, ptr %8, i64 8
  %10 = getelementptr inbounds nuw i8, ptr %8, i64 24
  %11 = load ptr, ptr %10, align 8, !tbaa !170, !noalias !462
  %12 = load ptr, ptr %9, align 8, !tbaa !90, !noalias !462
  %13 = tail call noundef ptr @_ZN20eliminate_predicates11init_clauseEP4exprPN18dependency_managerIN11ast_manager22expr_dependency_configEE10dependencyEj(ptr noundef nonnull align 8 dereferenceable(400) %0, ptr noundef %12, ptr noundef %11, i32 noundef %1)
  ret ptr %13
}